target datalayout = "e-m:e-p270:32:32-p271:32:32-p272:64:64-i64:64-i128:128-f80:128-n8:16:32:64-S128"
target triple = "x86_64-unknown-linux-gnu"

%"class.std::__cxx11::basic_string" = type { %"struct.std::__cxx11::basic_string<char>::_Alloc_hider", i64, %union.anon }
%"struct.std::__cxx11::basic_string<char>::_Alloc_hider" = type { ptr }
%union.anon = type { i64, [8 x i8] }
%"class.std::__cxx11::basic_ostringstream" = type { %"class.std::basic_ostream.base", %"class.std::__cxx11::basic_stringbuf", %"class.std::basic_ios" }
%"class.std::basic_ostream.base" = type { ptr }
%"class.std::__cxx11::basic_stringbuf" = type { %"class.std::basic_streambuf", i32, %"class.std::__cxx11::basic_string" }
%"class.std::basic_streambuf" = type { ptr, ptr, ptr, ptr, ptr, ptr, ptr, %"class.std::locale" }
%"class.std::locale" = type { ptr }
%"class.std::basic_ios" = type { %"class.std::ios_base", ptr, i8, i8, ptr, ptr, ptr, ptr }
%"class.std::ios_base" = type { ptr, i64, i64, i32, i32, i32, ptr, %"struct.std::ios_base::_Words", [8 x %"struct.std::ios_base::_Words"], i32, ptr, %"class.std::locale" }
%"struct.std::ios_base::_Words" = type { ptr, i64 }
%"class.openvdb::v11_0::math::Tuple.10" = type { [4 x double] }
%"struct.std::_Setprecision" = type { i32 }

@.str.9 = private unnamed_addr constant [3 x i8] c", \00", align 1
@.str.34 = private unnamed_addr constant [2 x i8] c"[\00", align 1
@.str.47 = private unnamed_addr constant [3 x i8] c"] \00", align 1

; Function Attrs: mustprogress nounwind uwtable
define linkonce_odr noundef double @_ZNK7openvdb5v11_04math5TupleILi4EdEixIiTnNSt9enable_ifIXsr3std11is_integralIT_EE5valueEbE4typeELb1EEEdS6_(ptr noundef nonnull align 8 dereferenceable(32) %this, i32 noundef %i) #5 comdat align 2 {
entry:
  %this.addr = alloca ptr, align 8
  %i.addr = alloca i32, align 4
  store ptr %this, ptr %this.addr, align 8
  store i32 %i, ptr %i.addr, align 4
  %this1 = load ptr, ptr %this.addr, align 8
  %mm = getelementptr inbounds %"class.openvdb::v11_0::math::Tuple.10", ptr %this1, i32 0, i32 0
  %0 = load i32, ptr %i.addr, align 4
  %idxprom = sext i32 %0 to i64
  %arrayidx = getelementptr inbounds [4 x double], ptr %mm, i64 0, i64 %idxprom
  %1 = load double, ptr %arrayidx, align 8
  ret double %1
}

; Function Attrs: mustprogress uwtable
define linkonce_odr noundef double @_ZNK7openvdb5v11_04math5TupleILi4EdEixEi(ptr noundef nonnull align 8 dereferenceable(32) %this, i32 noundef %i) #4 comdat align 2 {
entry:
  %this.addr = alloca ptr, align 8
  %i.addr = alloca i32, align 4
  store ptr %this, ptr %this.addr, align 8
  store i32 %i, ptr %i.addr, align 4
  %this1 = load ptr, ptr %this.addr, align 8
  %0 = load i32, ptr %i.addr, align 4
  %call = call noundef double @_ZNK7openvdb5v11_04math5TupleILi4EdEixIiTnNSt9enable_ifIXsr3std11is_integralIT_EE5valueEbE4typeELb1EEEdS6_(ptr noundef nonnull align 8 dereferenceable(32) %this1, i32 noundef %0)
  ret double %call
}

; Function Attrs: mustprogress nounwind uwtable
define linkonce_odr i32 @_ZSt12setprecisioni(i32 noundef %__n) #5 comdat {
entry:
  %retval = alloca %"struct.std::_Setprecision", align 4
  %__n.addr = alloca i32, align 4
  store i32 %__n, ptr %__n.addr, align 4
  %_M_n = getelementptr inbounds %"struct.std::_Setprecision", ptr %retval, i32 0, i32 0
  %0 = load i32, ptr %__n.addr, align 4
  store i32 %0, ptr %_M_n, align 4
  %coerce.dive = getelementptr inbounds %"struct.std::_Setprecision", ptr %retval, i32 0, i32 0
  %1 = load i32, ptr %coerce.dive, align 4
  ret i32 %1
}

; Function Attrs: mustprogress uwtable
define internal void @_ZZNK7openvdb5v11_04math9Transform5printERSoRKNSt7__cxx1112basic_stringIcSt11char_traitsIcESaIcEEEEN5Local11rowAsStringB5cxx11ERKNS1_4Vec4IdEE(ptr noalias sret(%"class.std::__cxx11::basic_string") align 8 %agg.result, ptr noundef nonnull align 8 dereferenceable(32) %row) #4 align 2 personality ptr @__gxx_personality_v0 {
entry:
  %result.ptr = alloca ptr, align 8
  %row.addr = alloca ptr, align 8
  %ostr = alloca %"class.std::__cxx11::basic_ostringstream", align 8
  %exn.slot = alloca ptr, align 8
  %ehselector.slot = alloca i32, align 4
  %agg.tmp = alloca %"struct.std::_Setprecision", align 4
  store ptr %agg.result, ptr %result.ptr, align 8
  store ptr %row, ptr %row.addr, align 8
  call void @_ZNSt7__cxx1119basic_ostringstreamIcSt11char_traitsIcESaIcEEC1Ev(ptr noundef nonnull align 8 dereferenceable(112) %ostr)
  %call = invoke noundef nonnull align 8 dereferenceable(8) ptr @_ZStlsISt11char_traitsIcEERSt13basic_ostreamIcT_ES5_PKc(ptr noundef nonnull align 8 dereferenceable(8) %ostr, ptr noundef @.str.34)
          to label %invoke.cont unwind label %lpad

invoke.cont:                                      ; preds = %entry
  %call1 = call i32 @_ZSt12setprecisioni(i32 noundef 3)
  %coerce.dive = getelementptr inbounds %"struct.std::_Setprecision", ptr %agg.tmp, i32 0, i32 0
  store i32 %call1, ptr %coerce.dive, align 4
  %coerce.dive2 = getelementptr inbounds %"struct.std::_Setprecision", ptr %agg.tmp, i32 0, i32 0
  %0 = load i32, ptr %coerce.dive2, align 4
  %call4 = invoke noundef nonnull align 8 dereferenceable(8) ptr @_ZStlsIcSt11char_traitsIcEERSt13basic_ostreamIT_T0_ES6_St13_Setprecision(ptr noundef nonnull align 8 dereferenceable(8) %call, i32 %0)
          to label %invoke.cont3 unwind label %lpad

invoke.cont3:                                     ; preds = %invoke.cont
  %1 = load ptr, ptr %row.addr, align 8
  %call6 = invoke noundef double @_ZNK7openvdb5v11_04math5TupleILi4EdEixEi(ptr noundef nonnull align 8 dereferenceable(32) %1, i32 noundef 0)
          to label %invoke.cont5 unwind label %lpad

invoke.cont5:                                     ; preds = %invoke.cont3
  %call8 = invoke noundef nonnull align 8 dereferenceable(8) ptr @_ZNSolsEd(ptr noundef nonnull align 8 dereferenceable(8) %call4, double noundef %call6)
          to label %invoke.cont7 unwind label %lpad

invoke.cont7:                                     ; preds = %invoke.cont5
  %call10 = invoke noundef nonnull align 8 dereferenceable(8) ptr @_ZStlsISt11char_traitsIcEERSt13basic_ostreamIcT_ES5_PKc(ptr noundef nonnull align 8 dereferenceable(8) %call8, ptr noundef @.str.9)
          to label %invoke.cont9 unwind label %lpad

invoke.cont9:                                     ; preds = %invoke.cont7
  %2 = load ptr, ptr %row.addr, align 8
  %call12 = invoke noundef double @_ZNK7openvdb5v11_04math5TupleILi4EdEixEi(ptr noundef nonnull align 8 dereferenceable(32) %2, i32 noundef 1)
          to label %invoke.cont11 unwind label %lpad

invoke.cont11:                                    ; preds = %invoke.cont9
  %call14 = invoke noundef nonnull align 8 dereferenceable(8) ptr @_ZNSolsEd(ptr noundef nonnull align 8 dereferenceable(8) %call10, double noundef %call12)
          to label %invoke.cont13 unwind label %lpad

invoke.cont13:                                    ; preds = %invoke.cont11
  %call16 = invoke noundef nonnull align 8 dereferenceable(8) ptr @_ZStlsISt11char_traitsIcEERSt13basic_ostreamIcT_ES5_PKc(ptr noundef nonnull align 8 dereferenceable(8) %call14, ptr noundef @.str.9)
          to label %invoke.cont15 unwind label %lpad

invoke.cont15:                                    ; preds = %invoke.cont13
  %3 = load ptr, ptr %row.addr, align 8
  %call18 = invoke noundef double @_ZNK7openvdb5v11_04math5TupleILi4EdEixEi(ptr noundef nonnull align 8 dereferenceable(32) %3, i32 noundef 2)
          to label %invoke.cont17 unwind label %lpad

invoke.cont17:                                    ; preds = %invoke.cont15
  %call20 = invoke noundef nonnull align 8 dereferenceable(8) ptr @_ZNSolsEd(ptr noundef nonnull align 8 dereferenceable(8) %call16, double noundef %call18)
          to label %invoke.cont19 unwind label %lpad

invoke.cont19:                                    ; preds = %invoke.cont17
  %call22 = invoke noundef nonnull align 8 dereferenceable(8) ptr @_ZStlsISt11char_traitsIcEERSt13basic_ostreamIcT_ES5_PKc(ptr noundef nonnull align 8 dereferenceable(8) %call20, ptr noundef @.str.9)
          to label %invoke.cont21 unwind label %lpad

invoke.cont21:                                    ; preds = %invoke.cont19
  %4 = load ptr, ptr %row.addr, align 8
  %call24 = invoke noundef double @_ZNK7openvdb5v11_04math5TupleILi4EdEixEi(ptr noundef nonnull align 8 dereferenceable(32) %4, i32 noundef 3)
          to label %invoke.cont23 unwind label %lpad

invoke.cont23:                                    ; preds = %invoke.cont21
  %call26 = invoke noundef nonnull align 8 dereferenceable(8) ptr @_ZNSolsEd(ptr noundef nonnull align 8 dereferenceable(8) %call22, double noundef %call24)
          to label %invoke.cont25 unwind label %lpad

invoke.cont25:                                    ; preds = %invoke.cont23
  %call28 = invoke noundef nonnull align 8 dereferenceable(8) ptr @_ZStlsISt11char_traitsIcEERSt13basic_ostreamIcT_ES5_PKc(ptr noundef nonnull align 8 dereferenceable(8) %call26, ptr noundef @.str.47)
          to label %invoke.cont27 unwind label %lpad

invoke.cont27:                                    ; preds = %invoke.cont25
  invoke void @_ZNKSt7__cxx1119basic_ostringstreamIcSt11char_traitsIcESaIcEE3strEv(ptr sret(%"class.std::__cxx11::basic_string") align 8 %agg.result, ptr noundef nonnull align 8 dereferenceable(112) %ostr)
          to label %invoke.cont29 unwind label %lpad

invoke.cont29:                                    ; preds = %invoke.cont27
  call void @_ZNSt7__cxx1119basic_ostringstreamIcSt11char_traitsIcESaIcEED1Ev(ptr noundef nonnull align 8 dereferenceable(112) %ostr) #3
  ret void

lpad:                                             ; preds = %invoke.cont27, %invoke.cont25, %invoke.cont23, %invoke.cont21, %invoke.cont19, %invoke.cont17, %invoke.cont15, %invoke.cont13, %invoke.cont11, %invoke.cont9, %invoke.cont7, %invoke.cont5, %invoke.cont3, %invoke.cont, %entry
  %5 = landingpad { ptr, i32 }
          cleanup
  %6 = extractvalue { ptr, i32 } %5, 0
  store ptr %6, ptr %exn.slot, align 8
  %7 = extractvalue { ptr, i32 } %5, 1
  store i32 %7, ptr %ehselector.slot, align 4
  call void @_ZNSt7__cxx1119basic_ostringstreamIcSt11char_traitsIcESaIcEED1Ev(ptr noundef nonnull align 8 dereferenceable(112) %ostr) #3
  br label %eh.resume

eh.resume:                                        ; preds = %lpad
  %exn = load ptr, ptr %exn.slot, align 8
  %sel = load i32, ptr %ehselector.slot, align 4
  %lpad.val = insertvalue { ptr, i32 } poison, ptr %exn, 0
  %lpad.val30 = insertvalue { ptr, i32 } %lpad.val, i32 %sel, 1
  resume { ptr, i32 } %lpad.val30
}